target datalayout = "e-m:e-p270:32:32-p271:32:32-p272:64:64-i64:64-i128:128-f80:128-n8:16:32:64-S128"
target triple = "x86_64-pc-linux-gnu"

%struct.sat_solver2_t = type { i32, i32, i32, i32, i32, double, double, i32, i32, i32, i32, ptr, ptr, i32, i32, i32, i32, i32, i32, i32, i32, i32, i32, i32, %struct.Sat_Mem_t_, ptr, %struct.veci_t, %struct.veci_t, i32, i32, i32, ptr, ptr, ptr, ptr, ptr, ptr, ptr, ptr, %struct.veci_t, %struct.veci_t, %struct.veci_t, %struct.veci_t, %struct.veci_t, %struct.veci_t, %struct.veci_t, %struct.veci_t, %struct.veci_t, %struct.veci_t, ptr, %struct.veci_t, i32, i32, ptr, double, ptr, i32, %struct.stats_t, i64, i64, i64 }
%struct.Sat_Mem_t_ = type { [2 x i32], [2 x i32], [2 x i32], [2 x i32], i32, i32, i32, i32, ptr }
%struct.veci_t = type { i32, i32, ptr }
%struct.stats_t = type { i32, i32, i32, i64, i64, i64, i64, i64, i64, i64 }
%struct.varinfo2_t = type { i8, [3 x i8] }
%struct.clause_t = type { i32, [0 x i32] }

; Function Attrs: nounwind uwtable
define internal ptr @Sat_MemClause(ptr noundef %0, i32 noundef %1, i32 noundef %2) #0 {
  %4 = alloca ptr, align 8
  %5 = alloca i32, align 4
  %6 = alloca i32, align 4
  store ptr %0, ptr %4, align 8
  store i32 %1, ptr %5, align 4
  store i32 %2, ptr %6, align 4
  %7 = load ptr, ptr %4, align 8
  %8 = getelementptr inbounds %struct.Sat_Mem_t_, ptr %7, i32 0, i32 8
  %9 = load ptr, ptr %8, align 8
  %10 = load i32, ptr %5, align 4
  %11 = sext i32 %10 to i64
  %12 = getelementptr inbounds ptr, ptr %9, i64 %11
  %13 = load ptr, ptr %12, align 8
  %14 = load i32, ptr %6, align 4
  %15 = sext i32 %14 to i64
  %16 = getelementptr inbounds i32, ptr %13, i64 %15
  ret ptr %16
}

; Function Attrs: nounwind uwtable
define internal i32 @Sat_MemHandShift(ptr noundef %0, i32 noundef %1) #0 {
  %3 = alloca ptr, align 8
  %4 = alloca i32, align 4
  store ptr %0, ptr %3, align 8
  store i32 %1, ptr %4, align 4
  %5 = load i32, ptr %4, align 4
  %6 = load ptr, ptr %3, align 8
  %7 = getelementptr inbounds %struct.Sat_Mem_t_, ptr %6, i32 0, i32 5
  %8 = load i32, ptr %7, align 4
  %9 = and i32 %5, %8
  ret i32 %9
}

; Function Attrs: nounwind uwtable
define internal i32 @Sat_MemHandPage(ptr noundef %0, i32 noundef %1) #0 {
  %3 = alloca ptr, align 8
  %4 = alloca i32, align 4
  store ptr %0, ptr %3, align 8
  store i32 %1, ptr %4, align 4
  %5 = load i32, ptr %4, align 4
  %6 = load ptr, ptr %3, align 8
  %7 = getelementptr inbounds %struct.Sat_Mem_t_, ptr %6, i32 0, i32 4
  %8 = load i32, ptr %7, align 8
  %9 = ashr i32 %5, %8
  ret i32 %9
}

; Function Attrs: nounwind uwtable
define internal ptr @Sat_MemClauseHand(ptr noundef %0, i32 noundef %1) #0 {
  %3 = alloca ptr, align 8
  %4 = alloca i32, align 4
  store ptr %0, ptr %3, align 8
  store i32 %1, ptr %4, align 4
  %5 = load i32, ptr %4, align 4
  %6 = icmp ne i32 %5, 0
  br i1 %6, label %7, label %16

7:                                                ; preds = %2
  %8 = load ptr, ptr %3, align 8
  %9 = load ptr, ptr %3, align 8
  %10 = load i32, ptr %4, align 4
  %11 = call i32 @Sat_MemHandPage(ptr noundef %9, i32 noundef %10)
  %12 = load ptr, ptr %3, align 8
  %13 = load i32, ptr %4, align 4
  %14 = call i32 @Sat_MemHandShift(ptr noundef %12, i32 noundef %13)
  %15 = call ptr @Sat_MemClause(ptr noundef %8, i32 noundef %11, i32 noundef %14)
  br label %17

16:                                               ; preds = %2
  br label %17

17:                                               ; preds = %16, %7
  %18 = phi ptr [ %15, %7 ], [ null, %16 ]
  ret ptr %18
}

; Function Attrs: nounwind uwtable
define internal void @var_add_tag(ptr noundef %0, i32 noundef %1, i32 noundef %2) #0 {
  %4 = alloca ptr, align 8
  %5 = alloca i32, align 4
  %6 = alloca i32, align 4
  store ptr %0, ptr %4, align 8
  store i32 %1, ptr %5, align 4
  store i32 %2, ptr %6, align 4
  %7 = load ptr, ptr %4, align 8
  %8 = getelementptr inbounds %struct.sat_solver2_t, ptr %7, i32 0, i32 31
  %9 = load ptr, ptr %8, align 8
  %10 = load i32, ptr %5, align 4
  %11 = sext i32 %10 to i64
  %12 = getelementptr inbounds %struct.varinfo2_t, ptr %9, i64 %11
  %13 = load i8, ptr %12, align 4
  %14 = lshr i8 %13, 2
  %15 = and i8 %14, 15
  %16 = zext i8 %15 to i32
  %17 = icmp eq i32 %16, 0
  br i1 %17, label %18, label %22

18:                                               ; preds = %3
  %19 = load ptr, ptr %4, align 8
  %20 = getelementptr inbounds %struct.sat_solver2_t, ptr %19, i32 0, i32 39
  %21 = load i32, ptr %5, align 4
  call void @veci_push(ptr noundef %20, i32 noundef %21)
  br label %22

22:                                               ; preds = %18, %3
  %23 = load i32, ptr %6, align 4
  %24 = load ptr, ptr %4, align 8
  %25 = getelementptr inbounds %struct.sat_solver2_t, ptr %24, i32 0, i32 31
  %26 = load ptr, ptr %25, align 8
  %27 = load i32, ptr %5, align 4
  %28 = sext i32 %27 to i64
  %29 = getelementptr inbounds %struct.varinfo2_t, ptr %26, i64 %28
  %30 = load i8, ptr %29, align 4
  %31 = lshr i8 %30, 2
  %32 = and i8 %31, 15
  %33 = zext i8 %32 to i32
  %34 = or i32 %33, %23
  %35 = trunc i32 %34 to i8
  %36 = load i8, ptr %29, align 4
  %37 = and i8 %35, 15
  %38 = shl i8 %37, 2
  %39 = and i8 %36, -61
  %40 = or i8 %39, %38
  store i8 %40, ptr %29, align 4
  ret void
}

; Function Attrs: nounwind uwtable
define internal i32 @var_level(ptr noundef %0, i32 noundef %1) #0 {
  %3 = alloca ptr, align 8
  %4 = alloca i32, align 4
  store ptr %0, ptr %3, align 8
  store i32 %1, ptr %4, align 4
  %5 = load ptr, ptr %3, align 8
  %6 = getelementptr inbounds %struct.sat_solver2_t, ptr %5, i32 0, i32 32
  %7 = load ptr, ptr %6, align 8
  %8 = load i32, ptr %4, align 4
  %9 = sext i32 %8 to i64
  %10 = getelementptr inbounds i32, ptr %7, i64 %9
  %11 = load i32, ptr %10, align 4
  ret i32 %11
}

; Function Attrs: nounwind uwtable
define internal i32 @lit_var(i32 noundef %0) #0 {
  %2 = alloca i32, align 4
  store i32 %0, ptr %2, align 4
  %3 = load i32, ptr %2, align 4
  %4 = ashr i32 %3, 1
  ret i32 %4
}

; Function Attrs: nounwind uwtable
define internal ptr @clause2_read(ptr noundef %0, i32 noundef %1) #0 {
  %3 = alloca ptr, align 8
  %4 = alloca i32, align 4
  store ptr %0, ptr %3, align 8
  store i32 %1, ptr %4, align 4
  %5 = load ptr, ptr %3, align 8
  %6 = getelementptr inbounds %struct.sat_solver2_t, ptr %5, i32 0, i32 24
  %7 = load i32, ptr %4, align 4
  %8 = call ptr @Sat_MemClauseHand(ptr noundef %6, i32 noundef %7)
  ret ptr %8
}

; Function Attrs: nounwind uwtable
define internal i32 @var_reason(ptr noundef %0, i32 noundef %1) #0 {
  %3 = alloca ptr, align 8
  %4 = alloca i32, align 4
  store ptr %0, ptr %3, align 8
  store i32 %1, ptr %4, align 4
  %5 = load ptr, ptr %3, align 8
  %6 = getelementptr inbounds %struct.sat_solver2_t, ptr %5, i32 0, i32 36
  %7 = load ptr, ptr %6, align 8
  %8 = load i32, ptr %4, align 4
  %9 = sext i32 %8 to i64
  %10 = getelementptr inbounds i32, ptr %7, i64 %9
  %11 = load i32, ptr %10, align 4
  ret i32 %11
}

; Function Attrs: nounwind uwtable
define internal i32 @var_tag(ptr noundef %0, i32 noundef %1) #0 {
  %3 = alloca ptr, align 8
  %4 = alloca i32, align 4
  store ptr %0, ptr %3, align 8
  store i32 %1, ptr %4, align 4
  %5 = load ptr, ptr %3, align 8
  %6 = getelementptr inbounds %struct.sat_solver2_t, ptr %5, i32 0, i32 31
  %7 = load ptr, ptr %6, align 8
  %8 = load i32, ptr %4, align 4
  %9 = sext i32 %8 to i64
  %10 = getelementptr inbounds %struct.varinfo2_t, ptr %7, i64 %9
  %11 = load i8, ptr %10, align 4
  %12 = lshr i8 %11, 2
  %13 = and i8 %12, 15
  %14 = zext i8 %13 to i32
  ret i32 %14
}

; Function Attrs: nounwind uwtable
define internal void @solver2_logging_order_rec(ptr noundef %0, i32 noundef %1) #0 {
  %3 = alloca ptr, align 8
  %4 = alloca i32, align 4
  %5 = alloca ptr, align 8
  %6 = alloca i32, align 4
  %7 = alloca i32, align 4
  store ptr %0, ptr %3, align 8
  store i32 %1, ptr %4, align 4
  %8 = load ptr, ptr %3, align 8
  %9 = load i32, ptr %4, align 4
  %10 = call i32 @var_tag(ptr noundef %8, i32 noundef %9)
  %11 = and i32 %10, 8
  %12 = icmp ne i32 %11, 0
  br i1 %12, label %13, label %14

13:                                               ; preds = %2
  br label %61

14:                                               ; preds = %2
  %15 = load ptr, ptr %3, align 8
  %16 = load ptr, ptr %3, align 8
  %17 = load i32, ptr %4, align 4
  %18 = call i32 @var_reason(ptr noundef %16, i32 noundef %17)
  %19 = call ptr @clause2_read(ptr noundef %15, i32 noundef %18)
  store ptr %19, ptr %5, align 8
  store i32 1, ptr %6, align 4
  br label %20

20:                                               ; preds = %52, %14
  %21 = load i32, ptr %6, align 4
  %22 = load ptr, ptr %5, align 8
  %23 = load i32, ptr %22, align 4
  %24 = lshr i32 %23, 11
  %25 = icmp slt i32 %21, %24
  br i1 %25, label %26, label %35

26:                                               ; preds = %20
  %27 = load ptr, ptr %5, align 8
  %28 = getelementptr inbounds %struct.clause_t, ptr %27, i32 0, i32 1
  %29 = load i32, ptr %6, align 4
  %30 = sext i32 %29 to i64
  %31 = getelementptr inbounds [0 x i32], ptr %28, i64 0, i64 %30
  %32 = load i32, ptr %31, align 4
  %33 = call i32 @lit_var(i32 noundef %32)
  store i32 %33, ptr %7, align 4
  %34 = icmp ne i32 %33, 0
  br label %35

35:                                               ; preds = %26, %20
  %36 = phi i1 [ false, %20 ], [ %34, %26 ]
  br i1 %36, label %37, label %55

37:                                               ; preds = %35
  %38 = load ptr, ptr %3, align 8
  %39 = load i32, ptr %7, align 4
  %40 = call i32 @var_level(ptr noundef %38, i32 noundef %39)
  %41 = icmp ne i32 %40, 0
  br i1 %41, label %42, label %51

42:                                               ; preds = %37
  %43 = load ptr, ptr %3, align 8
  %44 = load i32, ptr %7, align 4
  %45 = call i32 @var_tag(ptr noundef %43, i32 noundef %44)
  %46 = and i32 %45, 1
  %47 = icmp eq i32 %46, 0
  br i1 %47, label %48, label %51

48:                                               ; preds = %42
  %49 = load ptr, ptr %3, align 8
  %50 = load i32, ptr %7, align 4
  call void @solver2_logging_order_rec(ptr noundef %49, i32 noundef %50)
  br label %51

51:                                               ; preds = %48, %42, %37
  br label %52

52:                                               ; preds = %51
  %53 = load i32, ptr %6, align 4
  %54 = add nsw i32 %53, 1
  store i32 %54, ptr %6, align 4
  br label %20, !llvm.loop !76

55:                                               ; preds = %35
  %56 = load ptr, ptr %3, align 8
  %57 = load i32, ptr %4, align 4
  call void @var_add_tag(ptr noundef %56, i32 noundef %57, i32 noundef 8)
  %58 = load ptr, ptr %3, align 8
  %59 = getelementptr inbounds %struct.sat_solver2_t, ptr %58, i32 0, i32 47
  %60 = load i32, ptr %4, align 4
  call void @veci_push(ptr noundef %59, i32 noundef %60)
  br label %61

61:                                               ; preds = %55, %13
  ret void
}