; Function Attrs: nounwind uwtable
define internal fastcc void @solver2_logging_order_rec(ptr noundef captures(none) %0, i32 noundef %1) unnamed_addr #2 {
  %3 = getelementptr i8, ptr %0, i64 232
  %.val23 = load ptr, ptr %3, align 8
  %4 = sext i32 %1 to i64
  %5 = getelementptr inbounds %struct.varinfo2_t, ptr %.val23, i64 %4
  %6 = load i8, ptr %5, align 4
  %7 = and i8 %6, 32
  %.not.not.not = icmp eq i8 %7, 0
  br i1 %.not.not.not, label %clause2_read.exit, label %56

clause2_read.exit:                                ; preds = %2
  %8 = getelementptr i8, ptr %0, i64 272
  %.val24 = load ptr, ptr %8, align 8
  %9 = getelementptr inbounds i32, ptr %.val24, i64 %4
  %10 = load i32, ptr %9, align 4
  %.not.i.i = icmp ne i32 %10, 0
  tail call void @llvm.assume(i1 %.not.i.i)
  %11 = getelementptr i8, ptr %0, i64 152
  %.val.i.i = load i32, ptr %11, align 8
  %12 = ashr i32 %10, %.val.i.i
  %13 = getelementptr i8, ptr %0, i64 156
  %.val5.i.i = load i32, ptr %13, align 4
  %14 = and i32 %.val5.i.i, %10
  %15 = getelementptr i8, ptr %0, i64 168
  %.val6.i.i = load ptr, ptr %15, align 8
  %16 = sext i32 %12 to i64
  %17 = getelementptr inbounds ptr, ptr %.val6.i.i, i64 %16
  %18 = load ptr, ptr %17, align 8
  %19 = sext i32 %14 to i64
  %20 = getelementptr inbounds i32, ptr %18, i64 %19
  %21 = getelementptr inbounds nuw i8, ptr %20, i64 4
  %22 = load i32, ptr %20, align 4
  %23 = icmp ugt i32 %22, 4095
  br i1 %23, label %.lr.ph, label %.critedge

.lr.ph:                                           ; preds = %clause2_read.exit
  %24 = getelementptr i8, ptr %0, i64 240
  br label %25

25:                                               ; preds = %.lr.ph, %40
  %26 = phi i32 [ %22, %.lr.ph ], [ %41, %40 ]
  %indvars.iv = phi i64 [ 1, %.lr.ph ], [ %indvars.iv.next, %40 ]
  %27 = getelementptr inbounds nuw [0 x i32], ptr %21, i64 0, i64 %indvars.iv
  %28 = load i32, ptr %27, align 4
  %29 = ashr i32 %28, 1
  %.not20 = icmp ult i32 %28, 2
  br i1 %.not20, label %.critedge.loopexit, label %30

30:                                               ; preds = %25
  %.val = load ptr, ptr %24, align 8
  %31 = sext i32 %29 to i64
  %32 = getelementptr inbounds i32, ptr %.val, i64 %31
  %33 = load i32, ptr %32, align 4
  %.not21 = icmp eq i32 %33, 0
  br i1 %.not21, label %40, label %34

34:                                               ; preds = %30
  %.val22 = load ptr, ptr %3, align 8
  %35 = getelementptr inbounds %struct.varinfo2_t, ptr %.val22, i64 %31
  %36 = load i8, ptr %35, align 4
  %37 = and i8 %36, 4
  %38 = icmp eq i8 %37, 0
  br i1 %38, label %39, label %40

39:                                               ; preds = %34
  tail call fastcc void @solver2_logging_order_rec(ptr noundef nonnull %0, i32 noundef %29)
  %.pre = load i32, ptr %20, align 4
  br label %40

40:                                               ; preds = %30, %34, %39
  %41 = phi i32 [ %26, %30 ], [ %26, %34 ], [ %.pre, %39 ]
  %indvars.iv.next = add nuw nsw i64 %indvars.iv, 1
  %42 = lshr i32 %41, 11
  %43 = zext nneg i32 %42 to i64
  %44 = icmp samesign ult i64 %indvars.iv.next, %43
  br i1 %44, label %25, label %.critedge.loopexit, !llvm.loop !80

.critedge.loopexit:                               ; preds = %40, %25
  %.pre28 = load ptr, ptr %3, align 8
  %.phi.trans.insert = getelementptr inbounds %struct.varinfo2_t, ptr %.pre28, i64 %4
  %.pre29 = load i8, ptr %.phi.trans.insert, align 4
  br label %.critedge

.critedge:                                        ; preds = %.critedge.loopexit, %clause2_read.exit
  %45 = phi i8 [ %.pre29, %.critedge.loopexit ], [ %6, %clause2_read.exit ]
  %46 = phi ptr [ %.pre28, %.critedge.loopexit ], [ %.val23, %clause2_read.exit ]
  %47 = and i8 %45, 60
  %48 = icmp eq i8 %47, 0
  br i1 %48, label %49, label %var_add_tag.exit

49:                                               ; preds = %.critedge
  %50 = getelementptr inbounds nuw i8, ptr %0, i64 296
  tail call fastcc void @veci_push(ptr noundef nonnull %50, i32 noundef %1)
  %.pre.i = load ptr, ptr %3, align 8
  %.phi.trans.insert.i = getelementptr inbounds %struct.varinfo2_t, ptr %.pre.i, i64 %4
  %.pre6.i = load i8, ptr %.phi.trans.insert.i, align 4
  br label %var_add_tag.exit

var_add_tag.exit:                                 ; preds = %.critedge, %49
  %51 = phi i8 [ %.pre6.i, %49 ], [ %45, %.critedge ]
  %52 = phi ptr [ %.pre.i, %49 ], [ %46, %.critedge ]
  %53 = getelementptr inbounds %struct.varinfo2_t, ptr %52, i64 %4
  %54 = or i8 %51, 32
  store i8 %54, ptr %53, align 4
  %55 = getelementptr inbounds nuw i8, ptr %0, i64 424
  tail call fastcc void @veci_push(ptr noundef nonnull %55, i32 noundef %1)
  br label %56

56:                                               ; preds = %2, %var_add_tag.exit
  ret void
}